target datalayout = "e-m:e-p270:32:32-p271:32:32-p272:64:64-i64:64-i128:128-f80:128-n8:16:32:64-S128"
target triple = "x86_64-unknown-linux-gnu"

%"class.std::set.11" = type { %"class.std::_Rb_tree.12" }
%"class.std::_Rb_tree.12" = type { %"struct.std::_Rb_tree<QuantLib::Observer *, QuantLib::Observer *, std::_Identity<QuantLib::Observer *>, std::less<QuantLib::Observer *>>::_Rb_tree_impl" }
%"struct.std::_Rb_tree<QuantLib::Observer *, QuantLib::Observer *, std::_Identity<QuantLib::Observer *>, std::less<QuantLib::Observer *>>::_Rb_tree_impl" = type { [8 x i8], %"struct.std::_Rb_tree_header" }
%"struct.std::_Rb_tree_header" = type { %"struct.std::_Rb_tree_node_base", i64 }
%"struct.std::_Rb_tree_node_base" = type { i32, ptr, ptr, ptr }
%"class.QuantLib::Date" = type { i64 }
%"class.boost::detail::shared_count" = type { ptr }
%"class.QuantLib::Array" = type { %"class.std::unique_ptr", i64 }
%"class.std::unique_ptr" = type { %"struct.std::__uniq_ptr_data" }
%"struct.std::__uniq_ptr_data" = type { %"class.std::__uniq_ptr_impl" }
%"class.std::__uniq_ptr_impl" = type { %"class.std::tuple" }
%"class.std::tuple" = type { %"struct.std::_Tuple_impl" }
%"struct.std::_Tuple_impl" = type { %"struct.std::_Head_base.1" }
%"struct.std::_Head_base.1" = type { ptr }
%"class.std::set" = type { %"class.std::_Rb_tree" }
%"class.std::_Rb_tree" = type { %"struct.std::_Rb_tree<boost::shared_ptr<QuantLib::Observable>, boost::shared_ptr<QuantLib::Observable>, std::_Identity<boost::shared_ptr<QuantLib::Observable>>, std::less<boost::shared_ptr<QuantLib::Observable>>>::_Rb_tree_impl" }
%"struct.std::_Rb_tree<boost::shared_ptr<QuantLib::Observable>, boost::shared_ptr<QuantLib::Observable>, std::_Identity<boost::shared_ptr<QuantLib::Observable>>, std::less<boost::shared_ptr<QuantLib::Observable>>>::_Rb_tree_impl" = type { [8 x i8], %"struct.std::_Rb_tree_header" }
%"class.QuantLib::Observable" = type { ptr, %"class.std::set.11" }
%"class.QuantLib::Observer" = type { ptr, %"class.std::set" }
%"class.QuantLib::Parameter" = type { %"class.boost::shared_ptr.81", %"class.QuantLib::Array", %"class.QuantLib::Constraint" }
%"class.boost::shared_ptr.81" = type { ptr, %"class.boost::detail::shared_count" }
%"class.QuantLib::Constraint" = type { %"class.boost::shared_ptr.82" }
%"class.boost::shared_ptr.82" = type { ptr, %"class.boost::detail::shared_count" }
%"class.QuantLib::MarkovFunctional" = type { %"class.QuantLib::Gaussian1dModel.base", [7 x i8], %"class.QuantLib::CalibratedModel.base", %"struct.QuantLib::MarkovFunctional::ModelSettings", %"struct.QuantLib::MarkovFunctional::ModelOutputs", i8, %"class.boost::shared_ptr.75", %"class.std::vector.76", %"class.QuantLib::Parameter", ptr, %"class.std::vector.39", %"class.std::vector", %"class.QuantLib::Array", %"class.std::vector", %"class.QuantLib::Date", double, %"class.QuantLib::Handle.83", %"class.QuantLib::Handle.85", %"class.std::vector.39", %"class.std::vector.39", %"class.std::vector.34", %"class.boost::shared_ptr.87", %"class.boost::shared_ptr.88", %"class.std::map.89", %"class.std::vector", %"class.QuantLib::Array", %"class.QuantLib::Array", %"class.QuantLib::Array", %"class.std::vector.94", %"class.std::vector.94", %"class.QuantLib::Observable", %"class.QuantLib::Observer" }
%"class.QuantLib::Gaussian1dModel.base" = type <{ %"class.QuantLib::TermStructureConsistentModel.base", %"class.QuantLib::LazyObject.base", [4 x i8], %"class.std::unordered_map", %"class.boost::shared_ptr.58", %"class.QuantLib::Date", i8 }>
%"class.QuantLib::TermStructureConsistentModel.base" = type { ptr, %"class.QuantLib::Handle" }
%"class.QuantLib::Handle" = type { %"class.boost::shared_ptr.52" }
%"class.boost::shared_ptr.52" = type { ptr, %"class.boost::detail::shared_count" }
%"class.QuantLib::LazyObject.base" = type <{ ptr, i8, i8, i8, i8 }>
%"class.std::unordered_map" = type { %"class.std::_Hashtable" }
%"class.std::_Hashtable" = type { ptr, i64, %"struct.std::__detail::_Hash_node_base", i64, %"struct.std::__detail::_Prime_rehash_policy", ptr }
%"struct.std::__detail::_Hash_node_base" = type { ptr }
%"struct.std::__detail::_Prime_rehash_policy" = type { float, i64 }
%"class.boost::shared_ptr.58" = type { ptr, %"class.boost::detail::shared_count" }
%"class.QuantLib::CalibratedModel.base" = type <{ ptr, %"class.std::vector.59", %"class.boost::shared_ptr.64", i32, [4 x i8], %"class.QuantLib::Array", i32 }>
%"class.std::vector.59" = type { %"struct.std::_Vector_base.60" }
%"struct.std::_Vector_base.60" = type { %"struct.std::_Vector_base<QuantLib::Parameter, std::allocator<QuantLib::Parameter>>::_Vector_impl" }
%"struct.std::_Vector_base<QuantLib::Parameter, std::allocator<QuantLib::Parameter>>::_Vector_impl" = type { %"struct.std::_Vector_base<QuantLib::Parameter, std::allocator<QuantLib::Parameter>>::_Vector_impl_data" }
%"struct.std::_Vector_base<QuantLib::Parameter, std::allocator<QuantLib::Parameter>>::_Vector_impl_data" = type { ptr, ptr, ptr }
%"class.boost::shared_ptr.64" = type { ptr, %"class.boost::detail::shared_count" }
%"struct.QuantLib::MarkovFunctional::ModelSettings" = type { i64, double, i64, double, double, double, double, i32, %"class.std::vector", %"class.boost::shared_ptr.51" }
%"class.boost::shared_ptr.51" = type { ptr, %"class.boost::detail::shared_count" }
%"struct.QuantLib::MarkovFunctional::ModelOutputs" = type { i8, %"struct.QuantLib::MarkovFunctional::ModelSettings", %"class.std::vector.39", %"class.std::vector.34", %"class.std::vector", %"class.std::vector", %"class.std::vector", %"class.std::vector", %"class.std::vector.65", %"class.std::vector.70", %"class.std::vector.70", %"class.std::vector.70", %"class.std::vector.70", %"class.std::vector.70", %"class.std::vector.70", %"class.std::vector.70", %"class.std::vector.70", %"class.std::vector", %"class.std::vector" }
%"class.std::vector.65" = type { %"struct.std::_Vector_base.66" }
%"struct.std::_Vector_base.66" = type { %"struct.std::_Vector_base<std::__cxx11::basic_string<char>, std::allocator<std::__cxx11::basic_string<char>>>::_Vector_impl" }
%"struct.std::_Vector_base<std::__cxx11::basic_string<char>, std::allocator<std::__cxx11::basic_string<char>>>::_Vector_impl" = type { %"struct.std::_Vector_base<std::__cxx11::basic_string<char>, std::allocator<std::__cxx11::basic_string<char>>>::_Vector_impl_data" }
%"struct.std::_Vector_base<std::__cxx11::basic_string<char>, std::allocator<std::__cxx11::basic_string<char>>>::_Vector_impl_data" = type { ptr, ptr, ptr }
%"class.std::vector.70" = type { %"struct.std::_Vector_base.71" }
%"struct.std::_Vector_base.71" = type { %"struct.std::_Vector_base<std::vector<double>, std::allocator<std::vector<double>>>::_Vector_impl" }
%"struct.std::_Vector_base<std::vector<double>, std::allocator<std::vector<double>>>::_Vector_impl" = type { %"struct.std::_Vector_base<std::vector<double>, std::allocator<std::vector<double>>>::_Vector_impl_data" }
%"struct.std::_Vector_base<std::vector<double>, std::allocator<std::vector<double>>>::_Vector_impl_data" = type { ptr, ptr, ptr }
%"class.boost::shared_ptr.75" = type { ptr, %"class.boost::detail::shared_count" }
%"class.std::vector.76" = type { %"struct.std::_Vector_base.77" }
%"struct.std::_Vector_base.77" = type { %"struct.std::_Vector_base<boost::shared_ptr<QuantLib::Interpolation>, std::allocator<boost::shared_ptr<QuantLib::Interpolation>>>::_Vector_impl" }
%"struct.std::_Vector_base<boost::shared_ptr<QuantLib::Interpolation>, std::allocator<boost::shared_ptr<QuantLib::Interpolation>>>::_Vector_impl" = type { %"struct.std::_Vector_base<boost::shared_ptr<QuantLib::Interpolation>, std::allocator<boost::shared_ptr<QuantLib::Interpolation>>>::_Vector_impl_data" }
%"struct.std::_Vector_base<boost::shared_ptr<QuantLib::Interpolation>, std::allocator<boost::shared_ptr<QuantLib::Interpolation>>>::_Vector_impl_data" = type { ptr, ptr, ptr }
%"class.QuantLib::Handle.83" = type { %"class.boost::shared_ptr.84" }
%"class.boost::shared_ptr.84" = type { ptr, %"class.boost::detail::shared_count" }
%"class.QuantLib::Handle.85" = type { %"class.boost::shared_ptr.86" }
%"class.boost::shared_ptr.86" = type { ptr, %"class.boost::detail::shared_count" }
%"class.std::vector.39" = type { %"struct.std::_Vector_base.40" }
%"struct.std::_Vector_base.40" = type { %"struct.std::_Vector_base<QuantLib::Date, std::allocator<QuantLib::Date>>::_Vector_impl" }
%"struct.std::_Vector_base<QuantLib::Date, std::allocator<QuantLib::Date>>::_Vector_impl" = type { %"struct.std::_Vector_base<QuantLib::Date, std::allocator<QuantLib::Date>>::_Vector_impl_data" }
%"struct.std::_Vector_base<QuantLib::Date, std::allocator<QuantLib::Date>>::_Vector_impl_data" = type { ptr, ptr, ptr }
%"class.std::vector.34" = type { %"struct.std::_Vector_base.35" }
%"struct.std::_Vector_base.35" = type { %"struct.std::_Vector_base<QuantLib::Period, std::allocator<QuantLib::Period>>::_Vector_impl" }
%"struct.std::_Vector_base<QuantLib::Period, std::allocator<QuantLib::Period>>::_Vector_impl" = type { %"struct.std::_Vector_base<QuantLib::Period, std::allocator<QuantLib::Period>>::_Vector_impl_data" }
%"struct.std::_Vector_base<QuantLib::Period, std::allocator<QuantLib::Period>>::_Vector_impl_data" = type { ptr, ptr, ptr }
%"class.boost::shared_ptr.87" = type { ptr, %"class.boost::detail::shared_count" }
%"class.boost::shared_ptr.88" = type { ptr, %"class.boost::detail::shared_count" }
%"class.std::map.89" = type { %"class.std::_Rb_tree.90" }
%"class.std::_Rb_tree.90" = type { %"struct.std::_Rb_tree<QuantLib::Date, std::pair<const QuantLib::Date, QuantLib::MarkovFunctional::CalibrationPoint>, std::_Select1st<std::pair<const QuantLib::Date, QuantLib::MarkovFunctional::CalibrationPoint>>, std::less<QuantLib::Date>>::_Rb_tree_impl" }
%"struct.std::_Rb_tree<QuantLib::Date, std::pair<const QuantLib::Date, QuantLib::MarkovFunctional::CalibrationPoint>, std::_Select1st<std::pair<const QuantLib::Date, QuantLib::MarkovFunctional::CalibrationPoint>>, std::less<QuantLib::Date>>::_Rb_tree_impl" = type { [8 x i8], %"struct.std::_Rb_tree_header" }
%"class.std::vector" = type { %"struct.std::_Vector_base" }
%"struct.std::_Vector_base" = type { %"struct.std::_Vector_base<double, std::allocator<double>>::_Vector_impl" }
%"struct.std::_Vector_base<double, std::allocator<double>>::_Vector_impl" = type { %"struct.std::_Vector_base<double, std::allocator<double>>::_Vector_impl_data" }
%"struct.std::_Vector_base<double, std::allocator<double>>::_Vector_impl_data" = type { ptr, ptr, ptr }
%"class.std::vector.94" = type { %"struct.std::_Vector_base.95" }
%"struct.std::_Vector_base.95" = type { %"struct.std::_Vector_base<std::pair<unsigned long, unsigned long>, std::allocator<std::pair<unsigned long, unsigned long>>>::_Vector_impl" }
%"struct.std::_Vector_base<std::pair<unsigned long, unsigned long>, std::allocator<std::pair<unsigned long, unsigned long>>>::_Vector_impl" = type { %"struct.std::_Vector_base<std::pair<unsigned long, unsigned long>, std::allocator<std::pair<unsigned long, unsigned long>>>::_Vector_impl_data" }
%"struct.std::_Vector_base<std::pair<unsigned long, unsigned long>, std::allocator<std::pair<unsigned long, unsigned long>>>::_Vector_impl_data" = type { ptr, ptr, ptr }
%"class.QuantLib::MarkovFunctional::ZeroHelper" = type { ptr, double, ptr, ptr }
%"class.QuantLib::Brent" = type { %"class.QuantLib::Solver1D.base", [6 x i8] }
%"class.QuantLib::Solver1D.base" = type <{ double, double, double, double, double, i64, i64, double, double, i8, i8 }>
%"class.QuantLib::Solver1D" = type <{ double, double, double, double, double, i64, i64, double, double, i8, i8, [6 x i8] }>

; Function Attrs: mustprogress nounwind uwtable
define linkonce_odr void @_ZN8QuantLib8Solver1DINS_5BrentEEC2Ev(ptr noundef nonnull align 8 dereferenceable(74) %this) unnamed_addr #3 comdat align 2 {
entry:
  %this.addr = alloca ptr, align 8
  store ptr %this, ptr %this.addr, align 8, !tbaa !3
  %this1 = load ptr, ptr %this.addr, align 8
  %maxEvaluations_ = getelementptr inbounds nuw %"class.QuantLib::Solver1D", ptr %this1, i32 0, i32 5
  store i64 100, ptr %maxEvaluations_, align 8, !tbaa !468
  %lowerBound_ = getelementptr inbounds nuw %"class.QuantLib::Solver1D", ptr %this1, i32 0, i32 7
  store double 0.000000e+00, ptr %lowerBound_, align 8, !tbaa !314
  %upperBound_ = getelementptr inbounds nuw %"class.QuantLib::Solver1D", ptr %this1, i32 0, i32 8
  store double 0.000000e+00, ptr %upperBound_, align 8, !tbaa !316
  %lowerBoundEnforced_ = getelementptr inbounds nuw %"class.QuantLib::Solver1D", ptr %this1, i32 0, i32 9
  store i8 0, ptr %lowerBoundEnforced_, align 8, !tbaa !313
  %upperBoundEnforced_ = getelementptr inbounds nuw %"class.QuantLib::Solver1D", ptr %this1, i32 0, i32 10
  store i8 0, ptr %upperBoundEnforced_, align 1, !tbaa !315
  ret void
}

; Function Attrs: inlinehint mustprogress nounwind uwtable
define linkonce_odr noundef nonnull align 8 dereferenceable(8) ptr @_ZSt3maxIdERKT_S2_S2_(ptr noundef nonnull align 8 dereferenceable(8) %__a, ptr noundef nonnull align 8 dereferenceable(8) %__b) #5 comdat {
entry:
  %retval = alloca ptr, align 8
  %__a.addr = alloca ptr, align 8
  %__b.addr = alloca ptr, align 8
  store ptr %__a, ptr %__a.addr, align 8, !tbaa !3
  store ptr %__b, ptr %__b.addr, align 8, !tbaa !3
  %0 = load ptr, ptr %__a.addr, align 8, !tbaa !3
  %1 = load double, ptr %0, align 8, !tbaa !11
  %2 = load ptr, ptr %__b.addr, align 8, !tbaa !3
  %3 = load double, ptr %2, align 8, !tbaa !11
  %cmp = fcmp olt double %1, %3
  br i1 %cmp, label %if.then, label %if.end

if.then:                                          ; preds = %entry
  %4 = load ptr, ptr %__b.addr, align 8, !tbaa !3
  store ptr %4, ptr %retval, align 8
  br label %return

if.end:                                           ; preds = %entry
  %5 = load ptr, ptr %__a.addr, align 8, !tbaa !3
  store ptr %5, ptr %retval, align 8
  br label %return

return:                                           ; preds = %if.end, %if.then
  %6 = load ptr, ptr %retval, align 8
  ret ptr %6
}

; Function Attrs: inlinehint mustprogress nounwind uwtable
define linkonce_odr noundef nonnull align 8 dereferenceable(8) ptr @_ZSt3minIdERKT_S2_S2_(ptr noundef nonnull align 8 dereferenceable(8) %__a, ptr noundef nonnull align 8 dereferenceable(8) %__b) #5 comdat {
entry:
  %retval = alloca ptr, align 8
  %__a.addr = alloca ptr, align 8
  %__b.addr = alloca ptr, align 8
  store ptr %__a, ptr %__a.addr, align 8, !tbaa !3
  store ptr %__b, ptr %__b.addr, align 8, !tbaa !3
  %0 = load ptr, ptr %__b.addr, align 8, !tbaa !3
  %1 = load double, ptr %0, align 8, !tbaa !11
  %2 = load ptr, ptr %__a.addr, align 8, !tbaa !3
  %3 = load double, ptr %2, align 8, !tbaa !11
  %cmp = fcmp olt double %1, %3
  br i1 %cmp, label %if.then, label %if.end

if.then:                                          ; preds = %entry
  %4 = load ptr, ptr %__b.addr, align 8, !tbaa !3
  store ptr %4, ptr %retval, align 8
  br label %return

if.end:                                           ; preds = %entry
  %5 = load ptr, ptr %__a.addr, align 8, !tbaa !3
  store ptr %5, ptr %retval, align 8
  br label %return

return:                                           ; preds = %if.end, %if.then
  %6 = load ptr, ptr %retval, align 8
  ret ptr %6
}

; Function Attrs: inlinehint mustprogress nounwind uwtable
define linkonce_odr void @_ZN8QuantLib5BrentC2Ev(ptr noundef nonnull align 8 dereferenceable(74) %this) unnamed_addr #5 comdat align 2 {
entry:
  %this.addr = alloca ptr, align 8
  store ptr %this, ptr %this.addr, align 8, !tbaa !3
  %this1 = load ptr, ptr %this.addr, align 8
  call void @_ZN8QuantLib8Solver1DINS_5BrentEEC2Ev(ptr noundef nonnull align 8 dereferenceable(74) %this1) #19
  ret void
}

; Function Attrs: mustprogress nounwind uwtable
define linkonce_odr void @_ZN8QuantLib16MarkovFunctional10ZeroHelperC2EPKS0_RKNS_4DateERKNS0_16CalibrationPointEd(ptr noundef nonnull align 8 dereferenceable(32) %this, ptr noundef %model, ptr noundef nonnull align 8 dereferenceable(8) %expiry, ptr noundef nonnull align 8 dereferenceable(128) %p, double noundef %marketPrice) unnamed_addr #3 comdat align 2 {
entry:
  %this.addr = alloca ptr, align 8
  %model.addr = alloca ptr, align 8
  %expiry.addr = alloca ptr, align 8
  %p.addr = alloca ptr, align 8
  %marketPrice.addr = alloca double, align 8
  store ptr %this, ptr %this.addr, align 8, !tbaa !3
  store ptr %model, ptr %model.addr, align 8, !tbaa !3
  store ptr %expiry, ptr %expiry.addr, align 8, !tbaa !3
  store ptr %p, ptr %p.addr, align 8, !tbaa !3
  store double %marketPrice, ptr %marketPrice.addr, align 8, !tbaa !11
  %this1 = load ptr, ptr %this.addr, align 8
  %model_ = getelementptr inbounds nuw %"class.QuantLib::MarkovFunctional::ZeroHelper", ptr %this1, i32 0, i32 0
  %0 = load ptr, ptr %model.addr, align 8, !tbaa !3
  store ptr %0, ptr %model_, align 8, !tbaa !307
  %marketPrice_ = getelementptr inbounds nuw %"class.QuantLib::MarkovFunctional::ZeroHelper", ptr %this1, i32 0, i32 1
  %1 = load double, ptr %marketPrice.addr, align 8, !tbaa !11
  store double %1, ptr %marketPrice_, align 8, !tbaa !309
  %expiry_ = getelementptr inbounds nuw %"class.QuantLib::MarkovFunctional::ZeroHelper", ptr %this1, i32 0, i32 2
  %2 = load ptr, ptr %expiry.addr, align 8, !tbaa !3
  store ptr %2, ptr %expiry_, align 8, !tbaa !3
  %p_ = getelementptr inbounds nuw %"class.QuantLib::MarkovFunctional::ZeroHelper", ptr %this1, i32 0, i32 3
  %3 = load ptr, ptr %p.addr, align 8, !tbaa !3
  store ptr %3, ptr %p_, align 8, !tbaa !3
  ret void
}

; Function Attrs: mustprogress uwtable
define noundef double @_ZNK8QuantLib16MarkovFunctional14marketSwapRateERKNS_4DateERKNS0_16CalibrationPointEddd(ptr noundef nonnull align 8 dereferenceable(1344) %this, ptr noundef nonnull align 8 dereferenceable(8) %expiry, ptr noundef nonnull align 8 dereferenceable(128) %p, double noundef %digitalPrice, double noundef %guess, double noundef %shift) #1 align 2 {
entry:
  %this.addr = alloca ptr, align 8
  %expiry.addr = alloca ptr, align 8
  %p.addr = alloca ptr, align 8
  %digitalPrice.addr = alloca double, align 8
  %guess.addr = alloca double, align 8
  %shift.addr = alloca double, align 8
  %z = alloca %"class.QuantLib::MarkovFunctional::ZeroHelper", align 8
  %b = alloca %"class.QuantLib::Brent", align 8
  %solution = alloca double, align 8
  %ref.tmp = alloca double, align 8
  %ref.tmp3 = alloca double, align 8
  store ptr %this, ptr %this.addr, align 8, !tbaa !3
  store ptr %expiry, ptr %expiry.addr, align 8, !tbaa !3
  store ptr %p, ptr %p.addr, align 8, !tbaa !3
  store double %digitalPrice, ptr %digitalPrice.addr, align 8, !tbaa !11
  store double %guess, ptr %guess.addr, align 8, !tbaa !11
  store double %shift, ptr %shift.addr, align 8, !tbaa !11
  %this1 = load ptr, ptr %this.addr, align 8
  call void @llvm.lifetime.start.p0(i64 32, ptr %z) #19
  %0 = load ptr, ptr %expiry.addr, align 8, !tbaa !3
  %1 = load ptr, ptr %p.addr, align 8, !tbaa !3
  %2 = load double, ptr %digitalPrice.addr, align 8, !tbaa !11
  call void @_ZN8QuantLib16MarkovFunctional10ZeroHelperC2EPKS0_RKNS_4DateERKNS0_16CalibrationPointEd(ptr noundef nonnull align 8 dereferenceable(32) %z, ptr noundef %this1, ptr noundef nonnull align 8 dereferenceable(8) %0, ptr noundef nonnull align 8 dereferenceable(128) %1, double noundef %2)
  call void @llvm.lifetime.start.p0(i64 80, ptr %b) #19
  call void @_ZN8QuantLib5BrentC2Ev(ptr noundef nonnull align 8 dereferenceable(74) %b) #19
  call void @llvm.lifetime.start.p0(i64 8, ptr %solution) #19
  %modelSettings_ = getelementptr inbounds nuw %"class.QuantLib::MarkovFunctional", ptr %this1, i32 0, i32 3
  %marketRateAccuracy_ = getelementptr inbounds nuw %"struct.QuantLib::MarkovFunctional::ModelSettings", ptr %modelSettings_, i32 0, i32 4
  %3 = load double, ptr %marketRateAccuracy_, align 8, !tbaa !290
  call void @llvm.lifetime.start.p0(i64 8, ptr %ref.tmp) #19
  %modelSettings_2 = getelementptr inbounds nuw %"class.QuantLib::MarkovFunctional", ptr %this1, i32 0, i32 3
  %upperRateBound_ = getelementptr inbounds nuw %"struct.QuantLib::MarkovFunctional::ModelSettings", ptr %modelSettings_2, i32 0, i32 6
  %4 = load double, ptr %upperRateBound_, align 8, !tbaa !254
  %sub = fsub double %4, 1.000000e-05
  store double %sub, ptr %ref.tmp, align 8, !tbaa !11
  %call = call noundef nonnull align 8 dereferenceable(8) ptr @_ZSt3minIdERKT_S2_S2_(ptr noundef nonnull align 8 dereferenceable(8) %guess.addr, ptr noundef nonnull align 8 dereferenceable(8) %ref.tmp)
  call void @llvm.lifetime.start.p0(i64 8, ptr %ref.tmp3) #19
  %modelSettings_4 = getelementptr inbounds nuw %"class.QuantLib::MarkovFunctional", ptr %this1, i32 0, i32 3
  %lowerRateBound_ = getelementptr inbounds nuw %"struct.QuantLib::MarkovFunctional::ModelSettings", ptr %modelSettings_4, i32 0, i32 5
  %5 = load double, ptr %lowerRateBound_, align 8, !tbaa !251
  %6 = load double, ptr %shift.addr, align 8, !tbaa !11
  %sub5 = fsub double %5, %6
  %add = fadd double %sub5, 1.000000e-05
  store double %add, ptr %ref.tmp3, align 8, !tbaa !11
  %call6 = call noundef nonnull align 8 dereferenceable(8) ptr @_ZSt3maxIdERKT_S2_S2_(ptr noundef nonnull align 8 dereferenceable(8) %call, ptr noundef nonnull align 8 dereferenceable(8) %ref.tmp3)
  %7 = load double, ptr %call6, align 8, !tbaa !11
  %modelSettings_7 = getelementptr inbounds nuw %"class.QuantLib::MarkovFunctional", ptr %this1, i32 0, i32 3
  %lowerRateBound_8 = getelementptr inbounds nuw %"struct.QuantLib::MarkovFunctional::ModelSettings", ptr %modelSettings_7, i32 0, i32 5
  %8 = load double, ptr %lowerRateBound_8, align 8, !tbaa !251
  %9 = load double, ptr %shift.addr, align 8, !tbaa !11
  %sub9 = fsub double %8, %9
  %modelSettings_10 = getelementptr inbounds nuw %"class.QuantLib::MarkovFunctional", ptr %this1, i32 0, i32 3
  %upperRateBound_11 = getelementptr inbounds nuw %"struct.QuantLib::MarkovFunctional::ModelSettings", ptr %modelSettings_10, i32 0, i32 6
  %10 = load double, ptr %upperRateBound_11, align 8, !tbaa !254
  %call12 = call noundef double @_ZNK8QuantLib8Solver1DINS_5BrentEE5solveINS_16MarkovFunctional10ZeroHelperEEEdRKT_dddd(ptr noundef nonnull align 8 dereferenceable(74) %b, ptr noundef nonnull align 8 dereferenceable(32) %z, double noundef %3, double noundef %7, double noundef %sub9, double noundef %10)
  call void @llvm.lifetime.end.p0(i64 8, ptr %ref.tmp3) #19
  call void @llvm.lifetime.end.p0(i64 8, ptr %ref.tmp) #19
  store double %call12, ptr %solution, align 8, !tbaa !11
  %11 = load double, ptr %solution, align 8, !tbaa !11
  call void @llvm.lifetime.end.p0(i64 8, ptr %solution) #19
  call void @llvm.lifetime.end.p0(i64 80, ptr %b) #19
  call void @llvm.lifetime.end.p0(i64 32, ptr %z) #19
  ret double %11
}