; Function Attrs: mustprogress uwtable
define noundef double @_ZNK8QuantLib16MarkovFunctional14marketSwapRateERKNS_4DateERKNS0_16CalibrationPointEddd(ptr noundef nonnull align 8 dereferenceable(1344) %this, ptr noundef nonnull align 8 dereferenceable(8) %expiry, ptr noundef nonnull align 8 dereferenceable(128) %p, double noundef %digitalPrice, double noundef %guess, double noundef %shift) local_unnamed_addr #1 align 2 {
entry:
  %z = alloca %"class.QuantLib::MarkovFunctional::ZeroHelper", align 8
  %b = alloca %"class.QuantLib::Brent", align 8
  call void @llvm.lifetime.start.p0(i64 32, ptr nonnull %z) #32
  store ptr %this, ptr %z, align 8, !tbaa !483
  %marketPrice_.i = getelementptr inbounds nuw i8, ptr %z, i64 8
  store double %digitalPrice, ptr %marketPrice_.i, align 8, !tbaa !485
  %expiry_.i = getelementptr inbounds nuw i8, ptr %z, i64 16
  store ptr %expiry, ptr %expiry_.i, align 8, !tbaa !18
  %p_.i = getelementptr inbounds nuw i8, ptr %z, i64 24
  store ptr %p, ptr %p_.i, align 8, !tbaa !18
  call void @llvm.lifetime.start.p0(i64 80, ptr nonnull %b) #32
  %maxEvaluations_.i.i = getelementptr inbounds nuw i8, ptr %b, i64 40
  store i64 100, ptr %maxEvaluations_.i.i, align 8, !tbaa !486
  %lowerBound_.i.i = getelementptr inbounds nuw i8, ptr %b, i64 56
  call void @llvm.memset.p0.i64(ptr noundef nonnull align 8 dereferenceable(18) %lowerBound_.i.i, i8 0, i64 18, i1 false)
  %marketRateAccuracy_ = getelementptr inbounds nuw i8, ptr %this, i64 240
  %0 = load double, ptr %marketRateAccuracy_, align 8, !tbaa !488
  %upperRateBound_ = getelementptr inbounds nuw i8, ptr %this, i64 256
  %1 = load double, ptr %upperRateBound_, align 8, !tbaa !430
  %sub = fadd double %1, -1.000000e-05
  %cmp.i = fcmp olt double %sub, %guess
  %lowerRateBound_ = getelementptr inbounds nuw i8, ptr %this, i64 248
  %2 = load double, ptr %lowerRateBound_, align 8, !tbaa !427
  %sub5 = fsub double %2, %shift
  %add = fadd double %sub5, 1.000000e-05
  %.sroa.speculated4 = select i1 %cmp.i, double %sub, double %guess
  %cmp.i2 = fcmp olt double %.sroa.speculated4, %add
  %.sroa.speculated = select i1 %cmp.i2, double %add, double %.sroa.speculated4
  %call12 = call noundef double @_ZNK8QuantLib8Solver1DINS_5BrentEE5solveINS_16MarkovFunctional10ZeroHelperEEEdRKT_dddd(ptr noundef nonnull align 8 dereferenceable(74) %b, ptr noundef nonnull align 8 dereferenceable(32) %z, double noundef %0, double noundef %.sroa.speculated, double noundef %sub5, double noundef %1)
  call void @llvm.lifetime.end.p0(i64 80, ptr nonnull %b) #32
  call void @llvm.lifetime.end.p0(i64 32, ptr nonnull %z) #32
  ret double %call12
}